; Function Attrs: mustprogress uwtable
define void @_ZN7mitsuba16MemoryMappedFile16create_temporaryEm(ptr dead_on_unwind noalias nocapture writable sret(%"class.mitsuba::ref") align 8 %0, i64 noundef %1) local_unnamed_addr #0 align 2 personality ptr @__gxx_personality_v0 {
  %3 = tail call noalias noundef nonnull dereferenceable(24) ptr @_Znwm(i64 noundef 24) #23
  invoke void @_ZN7mitsuba16MemoryMappedFileC1Ev(ptr noundef nonnull align 8 dereferenceable(24) %3)
          to label %4 unwind label %12

4:                                                ; preds = %2
  store ptr %3, ptr %0, align 8
  %5 = getelementptr inbounds i8, ptr %3, i64 8
  %6 = atomicrmw add ptr %5, i32 1 seq_cst, align 4
  %7 = load ptr, ptr %0, align 8
  %8 = getelementptr inbounds i8, ptr %7, i64 16
  %9 = load ptr, ptr %8, align 8
  %10 = getelementptr inbounds i8, ptr %9, i64 32
  store i64 %1, ptr %10, align 8
  %11 = load ptr, ptr %8, align 8
  invoke void @_ZN7mitsuba16MemoryMappedFile23MemoryMappedFilePrivate11create_tempEv(ptr noundef nonnull align 8 dereferenceable(50) %11)
          to label %15 unwind label %_ZN7mitsuba3refINS_16MemoryMappedFileEED2Ev.exit

12:                                               ; preds = %2
  %13 = landingpad { ptr, i32 }
          cleanup
  tail call void @_ZdlPv(ptr noundef nonnull %3) #25
  br label %16

_ZN7mitsuba3refINS_16MemoryMappedFileEED2Ev.exit: ; preds = %4
  %14 = landingpad { ptr, i32 }
          cleanup
  tail call void @_ZNK7mitsuba6Object7dec_refEb(ptr noundef nonnull align 8 dereferenceable(12) %7, i1 noundef zeroext true) #24
  br label %16

15:                                               ; preds = %4
  ret void

16:                                               ; preds = %_ZN7mitsuba3refINS_16MemoryMappedFileEED2Ev.exit, %12
  %.pn = phi { ptr, i32 } [ %14, %_ZN7mitsuba3refINS_16MemoryMappedFileEED2Ev.exit ], [ %13, %12 ]
  resume { ptr, i32 } %.pn
}